; ModuleID = 'source-C-CXX/61/2528.c'
source_filename = "source-C-CXX/61/2528.c"
target datalayout = "e-m:e-p270:32:32-p271:32:32-p272:64:64-i64:64-f80:128-n8:16:32:64-S128"
target triple = "x86_64-pc-linux-gnu"

; Function Attrs: nounwind sspstrong uwtable
define dso_local i32 @main() local_unnamed_addr #0 {
  %1 = alloca [100 x i8], align 16
  %2 = getelementptr inbounds [100 x i8], [100 x i8]* %1, i64 0, i64 0
  call void @llvm.lifetime.start.p0i8(i64 100, i8* nonnull %2) #4
  %3 = call i32 (i8*, ...) bitcast (i32 (...)* @gets to i32 (i8*, ...)*)(i8* nonnull %2) #4
  %4 = load i8, i8* %2, align 16, !tbaa !5
  %5 = icmp eq i8 %4, 0
  br i1 %5, label %6, label %7

6:                                                ; preds = %27, %0
  call void @llvm.lifetime.end.p0i8(i64 100, i8* nonnull %2) #4
  ret i32 0

7:                                                ; preds = %0, %27
  %8 = phi i8 [ %31, %27 ], [ %4, %0 ]
  %9 = phi i8* [ %30, %27 ], [ %2, %0 ]
  %10 = phi i32 [ %28, %27 ], [ 0, %0 ]
  %11 = sext i8 %8 to i32
  %12 = call i32 @putchar(i32 %11)
  %13 = load i8, i8* %9, align 1, !tbaa !5
  %14 = icmp eq i8 %13, 32
  br i1 %14, label %17, label %15

15:                                               ; preds = %7
  %16 = add nsw i32 %10, 1
  br label %27

17:                                               ; preds = %7
  %18 = sext i32 %10 to i64
  br label %19

19:                                               ; preds = %17, %19
  %20 = phi i64 [ %18, %17 ], [ %22, %19 ]
  %21 = phi i32 [ %10, %17 ], [ %23, %19 ]
  %22 = add nsw i64 %20, 1
  %23 = add nsw i32 %21, 1
  %24 = getelementptr inbounds [100 x i8], [100 x i8]* %1, i64 0, i64 %22
  %25 = load i8, i8* %24, align 1, !tbaa !5
  %26 = icmp eq i8 %25, 32
  br i1 %26, label %19, label %27, !llvm.loop !8

27:                                               ; preds = %19, %15
  %28 = phi i32 [ %16, %15 ], [ %23, %19 ]
  %29 = sext i32 %28 to i64
  %30 = getelementptr inbounds [100 x i8], [100 x i8]* %1, i64 0, i64 %29
  %31 = load i8, i8* %30, align 1, !tbaa !5
  %32 = icmp eq i8 %31, 0
  br i1 %32, label %6, label %7, !llvm.loop !10
}

; Function Attrs: argmemonly mustprogress nofree nosync nounwind willreturn
declare void @llvm.lifetime.start.p0i8(i64 immarg, i8* nocapture) #1

declare i32 @gets(...) local_unnamed_addr #2

; Function Attrs: argmemonly mustprogress nofree nosync nounwind willreturn
declare void @llvm.lifetime.end.p0i8(i64 immarg, i8* nocapture) #1

; Function Attrs: nofree nounwind
declare noundef i32 @putchar(i32 noundef) local_unnamed_addr #3


!llvm.module.flags = !{!0, !1, !2, !3}
!llvm.ident = !{!4}

!0 = !{i32 1, !"wchar_size", i32 4}
!1 = !{i32 7, !"PIC Level", i32 2}
!2 = !{i32 7, !"PIE Level", i32 2}
!3 = !{i32 7, !"uwtable", i32 1}
!4 = !{!"clang version 13.0.0"}
!5 = !{!6, !6, i64 0}
!6 = !{!"omnipotent char", !7, i64 0}
!7 = !{!"Simple C/C++ TBAA"}
!8 = distinct !{!8, !9}
!9 = !{!"llvm.loop.mustprogress"}
!10 = distinct !{!10, !9}
